target datalayout = "e-m:e-p270:32:32-p271:32:32-p272:64:64-i64:64-i128:128-f80:128-n8:16:32:64-S128"
target triple = "x86_64-pc-linux-gnu"

%struct.pmix_pointer_array_t = type { %struct.pmix_object_t, i32, i32, i32, i32, i32, ptr, ptr }
%struct.pmix_object_t = type { %union.pthread_mutex_t, ptr, i32, %struct.pmix_tma }
%union.pthread_mutex_t = type { %struct.__pthread_mutex_s }
%struct.__pthread_mutex_s = type { i32, i32, i32, i32, i32, i16, i16, %struct.__pthread_internal_list }
%struct.__pthread_internal_list = type { ptr, ptr }
%struct.pmix_tma = type { ptr, ptr, ptr, ptr, ptr, ptr, ptr, ptr }
%struct.pmix_mca_base_var_group_t = type { %struct.pmix_list_item_t, i32, i8, ptr, ptr, ptr, ptr, ptr, %struct.pmix_value_array_t, %struct.pmix_value_array_t }
%struct.pmix_list_item_t = type { %struct.pmix_object_t, ptr, ptr, i32 }
%struct.pmix_value_array_t = type { %struct.pmix_object_t, ptr, i64, i64, i64 }

@pmix_mca_base_var_groups = internal global %struct.pmix_pointer_array_t zeroinitializer, align 8
@pmix_mca_base_var_groups_timestamp = internal global i32 0, align 4

; Function Attrs: inlinehint nounwind uwtable
define internal ptr @pmix_pointer_array_get_item(ptr noundef %0, i32 noundef %1) #3 {
  %3 = alloca ptr, align 8
  %4 = alloca ptr, align 8
  %5 = alloca i32, align 4
  %6 = alloca ptr, align 8
  %7 = alloca i32, align 4
  store ptr %0, ptr %4, align 8, !tbaa !50
  store i32 %1, ptr %5, align 4, !tbaa !8
  call void @llvm.lifetime.start.p0(i64 8, ptr %6) #14
  %8 = load i32, ptr %5, align 4, !tbaa !8
  %9 = icmp sgt i32 0, %8
  br i1 %9, label %16, label %10

10:                                               ; preds = %2
  %11 = load ptr, ptr %4, align 8, !tbaa !50
  %12 = getelementptr inbounds nuw %struct.pmix_pointer_array_t, ptr %11, i32 0, i32 3
  %13 = load i32, ptr %12, align 8, !tbaa !52
  %14 = load i32, ptr %5, align 4, !tbaa !8
  %15 = icmp sle i32 %13, %14
  br label %16

16:                                               ; preds = %10, %2
  %17 = phi i1 [ true, %2 ], [ %15, %10 ]
  %18 = xor i1 %17, true
  %19 = xor i1 %18, true
  %20 = zext i1 %19 to i32
  %21 = sext i32 %20 to i64
  %22 = call i64 @llvm.expect.i64(i64 %21, i64 0)
  %23 = icmp ne i64 %22, 0
  br i1 %23, label %24, label %25

24:                                               ; preds = %16
  store ptr null, ptr %3, align 8
  store i32 1, ptr %7, align 4
  br label %34

25:                                               ; preds = %16
  %26 = load ptr, ptr %4, align 8, !tbaa !50
  %27 = getelementptr inbounds nuw %struct.pmix_pointer_array_t, ptr %26, i32 0, i32 7
  %28 = load ptr, ptr %27, align 8, !tbaa !55
  %29 = load i32, ptr %5, align 4, !tbaa !8
  %30 = sext i32 %29 to i64
  %31 = getelementptr inbounds ptr, ptr %28, i64 %30
  %32 = load ptr, ptr %31, align 8, !tbaa !45
  store ptr %32, ptr %6, align 8, !tbaa !45
  %33 = load ptr, ptr %6, align 8, !tbaa !45
  store ptr %33, ptr %3, align 8
  store i32 1, ptr %7, align 4
  br label %34

34:                                               ; preds = %25, %24
  call void @llvm.lifetime.end.p0(i64 8, ptr %6) #14
  %35 = load ptr, ptr %3, align 8
  ret ptr %35
}

; Function Attrs: inlinehint nounwind uwtable
define internal i64 @pmix_value_array_get_size(ptr noundef %0) #3 {
  %2 = alloca ptr, align 8
  store ptr %0, ptr %2, align 8, !tbaa !71
  %3 = load ptr, ptr %2, align 8, !tbaa !71
  %4 = getelementptr inbounds nuw %struct.pmix_value_array_t, ptr %3, i32 0, i32 3
  %5 = load i64, ptr %4, align 8, !tbaa !73
  ret i64 %5
}

; Function Attrs: nounwind uwtable
define i32 @pmix_mca_base_var_group_get_internal(i32 noundef %0, ptr noundef %1, i1 noundef zeroext %2) #0 {
  %4 = alloca i32, align 4
  %5 = alloca i32, align 4
  %6 = alloca ptr, align 8
  %7 = alloca i8, align 1
  store i32 %0, ptr %5, align 4, !tbaa !8
  store ptr %1, ptr %6, align 8, !tbaa !59
  %8 = zext i1 %2 to i8
  store i8 %8, ptr %7, align 1, !tbaa !29
  %9 = load i32, ptr %5, align 4, !tbaa !8
  %10 = icmp slt i32 %9, 0
  br i1 %10, label %11, label %12

11:                                               ; preds = %3
  store i32 -46, ptr %4, align 4
  br label %31

12:                                               ; preds = %3
  %13 = load i32, ptr %5, align 4, !tbaa !8
  %14 = call ptr @pmix_pointer_array_get_item(ptr noundef @pmix_mca_base_var_groups, i32 noundef %13)
  %15 = load ptr, ptr %6, align 8, !tbaa !59
  store ptr %14, ptr %15, align 8, !tbaa !3
  %16 = load ptr, ptr %6, align 8, !tbaa !59
  %17 = load ptr, ptr %16, align 8, !tbaa !3
  %18 = icmp eq ptr null, %17
  br i1 %18, label %28, label %19

19:                                               ; preds = %12
  %20 = load i8, ptr %7, align 1, !tbaa !29, !range !30, !noundef !31
  %21 = trunc i8 %20 to i1
  br i1 %21, label %30, label %22

22:                                               ; preds = %19
  %23 = load ptr, ptr %6, align 8, !tbaa !59
  %24 = load ptr, ptr %23, align 8, !tbaa !3
  %25 = getelementptr inbounds nuw %struct.pmix_mca_base_var_group_t, ptr %24, i32 0, i32 2
  %26 = load i8, ptr %25, align 4, !tbaa !61, !range !30, !noundef !31
  %27 = trunc i8 %26 to i1
  br i1 %27, label %30, label %28

28:                                               ; preds = %22, %12
  %29 = load ptr, ptr %6, align 8, !tbaa !59
  store ptr null, ptr %29, align 8, !tbaa !3
  store i32 -46, ptr %4, align 4
  br label %31

30:                                               ; preds = %22, %19
  store i32 0, ptr %4, align 4
  br label %31

31:                                               ; preds = %30, %28, %11
  %32 = load i32, ptr %4, align 4
  ret i32 %32
}

; Function Attrs: nounwind uwtable
define i32 @pmix_mca_base_var_group_deregister(i32 noundef %0) #0 {
  %2 = alloca i32, align 4
  %3 = alloca i32, align 4
  %4 = alloca ptr, align 8
  %5 = alloca i32, align 4
  %6 = alloca i32, align 4
  %7 = alloca ptr, align 8
  %8 = alloca ptr, align 8
  %9 = alloca i32, align 4
  %10 = alloca i32, align 4
  %11 = alloca ptr, align 8
  %12 = alloca i32, align 4
  store i32 %0, ptr %3, align 4, !tbaa !8
  call void @llvm.lifetime.start.p0(i64 8, ptr %4) #14
  call void @llvm.lifetime.start.p0(i64 4, ptr %5) #14
  call void @llvm.lifetime.start.p0(i64 4, ptr %6) #14
  call void @llvm.lifetime.start.p0(i64 8, ptr %7) #14
  call void @llvm.lifetime.start.p0(i64 8, ptr %8) #14
  %13 = load i32, ptr %3, align 4, !tbaa !8
  %14 = call i32 @pmix_mca_base_var_group_get_internal(i32 noundef %13, ptr noundef %4, i1 noundef zeroext false)
  store i32 %14, ptr %6, align 4, !tbaa !8
  %15 = load i32, ptr %6, align 4, !tbaa !8
  %16 = icmp ne i32 0, %15
  br i1 %16, label %17, label %19

17:                                               ; preds = %1
  %18 = load i32, ptr %6, align 4, !tbaa !8
  store i32 %18, ptr %2, align 4
  store i32 1, ptr %9, align 4
  br label %85

19:                                               ; preds = %1
  %20 = load ptr, ptr %4, align 8, !tbaa !3
  %21 = getelementptr inbounds nuw %struct.pmix_mca_base_var_group_t, ptr %20, i32 0, i32 2
  store i8 0, ptr %21, align 4, !tbaa !61
  %22 = load ptr, ptr %4, align 8, !tbaa !3
  %23 = getelementptr inbounds nuw %struct.pmix_mca_base_var_group_t, ptr %22, i32 0, i32 9
  %24 = call i64 @pmix_value_array_get_size(ptr noundef %23)
  %25 = trunc i64 %24 to i32
  store i32 %25, ptr %5, align 4, !tbaa !8
  %26 = load ptr, ptr %4, align 8, !tbaa !3
  %27 = getelementptr inbounds nuw %struct.pmix_mca_base_var_group_t, ptr %26, i32 0, i32 9
  %28 = getelementptr inbounds nuw %struct.pmix_value_array_t, ptr %27, i32 0, i32 1
  %29 = load ptr, ptr %28, align 8, !tbaa !65
  store ptr %29, ptr %7, align 8, !tbaa !66
  call void @llvm.lifetime.start.p0(i64 4, ptr %10) #14
  store i32 0, ptr %10, align 4, !tbaa !8
  br label %30

30:                                               ; preds = %55, %19
  %31 = load i32, ptr %10, align 4, !tbaa !8
  %32 = load i32, ptr %5, align 4, !tbaa !8
  %33 = icmp slt i32 %31, %32
  br i1 %33, label %35, label %34

34:                                               ; preds = %30
  store i32 2, ptr %9, align 4
  call void @llvm.lifetime.end.p0(i64 4, ptr %10) #14
  br label %58

35:                                               ; preds = %30
  call void @llvm.lifetime.start.p0(i64 8, ptr %11) #14
  %36 = load ptr, ptr %7, align 8, !tbaa !66
  %37 = load i32, ptr %10, align 4, !tbaa !8
  %38 = sext i32 %37 to i64
  %39 = getelementptr inbounds i32, ptr %36, i64 %38
  %40 = load i32, ptr %39, align 4, !tbaa !8
  %41 = call i32 @pmix_mca_base_var_get(i32 noundef %40, ptr noundef %11)
  store i32 %41, ptr %6, align 4, !tbaa !8
  %42 = load i32, ptr %6, align 4, !tbaa !8
  %43 = icmp ne i32 0, %42
  br i1 %43, label %44, label %45

44:                                               ; preds = %35
  store i32 4, ptr %9, align 4
  br label %52

45:                                               ; preds = %35
  %46 = load ptr, ptr %7, align 8, !tbaa !66
  %47 = load i32, ptr %10, align 4, !tbaa !8
  %48 = sext i32 %47 to i64
  %49 = getelementptr inbounds i32, ptr %46, i64 %48
  %50 = load i32, ptr %49, align 4, !tbaa !8
  %51 = call i32 @pmix_mca_base_var_deregister(i32 noundef %50)
  store i32 0, ptr %9, align 4
  br label %52

52:                                               ; preds = %45, %44
  call void @llvm.lifetime.end.p0(i64 8, ptr %11) #14
  %53 = load i32, ptr %9, align 4
  switch i32 %53, label %87 [
    i32 0, label %54
    i32 4, label %55
  ]

54:                                               ; preds = %52
  br label %55

55:                                               ; preds = %54, %52
  %56 = load i32, ptr %10, align 4, !tbaa !8
  %57 = add nsw i32 %56, 1
  store i32 %57, ptr %10, align 4, !tbaa !8
  br label %30, !llvm.loop !68

58:                                               ; preds = %34
  %59 = load ptr, ptr %4, align 8, !tbaa !3
  %60 = getelementptr inbounds nuw %struct.pmix_mca_base_var_group_t, ptr %59, i32 0, i32 8
  %61 = call i64 @pmix_value_array_get_size(ptr noundef %60)
  %62 = trunc i64 %61 to i32
  store i32 %62, ptr %5, align 4, !tbaa !8
  %63 = load ptr, ptr %4, align 8, !tbaa !3
  %64 = getelementptr inbounds nuw %struct.pmix_mca_base_var_group_t, ptr %63, i32 0, i32 8
  %65 = getelementptr inbounds nuw %struct.pmix_value_array_t, ptr %64, i32 0, i32 1
  %66 = load ptr, ptr %65, align 8, !tbaa !69
  store ptr %66, ptr %8, align 8, !tbaa !66
  call void @llvm.lifetime.start.p0(i64 4, ptr %12) #14
  store i32 0, ptr %12, align 4, !tbaa !8
  br label %67

67:                                               ; preds = %79, %58
  %68 = load i32, ptr %12, align 4, !tbaa !8
  %69 = load i32, ptr %5, align 4, !tbaa !8
  %70 = icmp slt i32 %68, %69
  br i1 %70, label %72, label %71

71:                                               ; preds = %67
  store i32 5, ptr %9, align 4
  call void @llvm.lifetime.end.p0(i64 4, ptr %12) #14
  br label %82

72:                                               ; preds = %67
  %73 = load ptr, ptr %8, align 8, !tbaa !66
  %74 = load i32, ptr %12, align 4, !tbaa !8
  %75 = sext i32 %74 to i64
  %76 = getelementptr inbounds i32, ptr %73, i64 %75
  %77 = load i32, ptr %76, align 4, !tbaa !8
  %78 = call i32 @pmix_mca_base_var_group_deregister(i32 noundef %77)
  br label %79

79:                                               ; preds = %72
  %80 = load i32, ptr %12, align 4, !tbaa !8
  %81 = add nsw i32 %80, 1
  store i32 %81, ptr %12, align 4, !tbaa !8
  br label %67, !llvm.loop !70

82:                                               ; preds = %71
  %83 = load i32, ptr @pmix_mca_base_var_groups_timestamp, align 4, !tbaa !8
  %84 = add nsw i32 %83, 1
  store i32 %84, ptr @pmix_mca_base_var_groups_timestamp, align 4, !tbaa !8
  store i32 0, ptr %2, align 4
  store i32 1, ptr %9, align 4
  br label %85

85:                                               ; preds = %82, %17
  call void @llvm.lifetime.end.p0(i64 8, ptr %8) #14
  call void @llvm.lifetime.end.p0(i64 8, ptr %7) #14
  call void @llvm.lifetime.end.p0(i64 4, ptr %6) #14
  call void @llvm.lifetime.end.p0(i64 4, ptr %5) #14
  call void @llvm.lifetime.end.p0(i64 8, ptr %4) #14
  %86 = load i32, ptr %2, align 4
  ret i32 %86

87:                                               ; preds = %52
  unreachable
}