; Function Attrs: nounwind uwtable
define range(i32 -46, 1) i32 @pmix_mca_base_var_group_deregister(i32 noundef %0) local_unnamed_addr #0 {
  %2 = alloca ptr, align 8
  %3 = icmp sgt i32 %0, -1
  %4 = load i32, ptr getelementptr inbounds nuw (i8, ptr @pmix_mca_base_var_groups, i64 128), align 8
  %.not.i = icmp sgt i32 %4, %0
  %or.cond = select i1 %3, i1 %.not.i, i1 false
  br i1 %or.cond, label %pmix_pointer_array_get_item.exit.i, label %pmix_mca_base_var_group_get_internal.exit.thread, !prof !50

pmix_pointer_array_get_item.exit.i:               ; preds = %1
  %5 = load ptr, ptr getelementptr inbounds nuw (i8, ptr @pmix_mca_base_var_groups, i64 152), align 8, !tbaa !41
  %6 = zext nneg i32 %0 to i64
  %7 = getelementptr inbounds nuw ptr, ptr %5, i64 %6
  %8 = load ptr, ptr %7, align 8, !tbaa !18
  %9 = icmp eq ptr %8, null
  br i1 %9, label %pmix_mca_base_var_group_get_internal.exit.thread, label %10

10:                                               ; preds = %pmix_pointer_array_get_item.exit.i
  %11 = getelementptr inbounds nuw i8, ptr %8, i64 148
  %12 = load i8, ptr %11, align 4, !tbaa !46, !range !47, !noundef !48
  %13 = trunc nuw i8 %12 to i1
  br i1 %13, label %pmix_mca_base_var_group_get_internal.exit, label %pmix_mca_base_var_group_get_internal.exit.thread

pmix_mca_base_var_group_get_internal.exit:        ; preds = %10
  store i8 0, ptr %11, align 4, !tbaa !46
  %14 = getelementptr i8, ptr %8, i64 480
  %.val = load i64, ptr %14, align 8, !tbaa !24
  %15 = trunc i64 %.val to i32
  %16 = getelementptr inbounds nuw i8, ptr %8, i64 464
  %17 = load ptr, ptr %16, align 8, !tbaa !51
  %18 = icmp sgt i32 %15, 0
  br i1 %18, label %.lr.ph.preheader, label %._crit_edge

.lr.ph.preheader:                                 ; preds = %pmix_mca_base_var_group_get_internal.exit
  %wide.trip.count = and i64 %.val, 2147483647
  br label %.lr.ph

._crit_edge:                                      ; preds = %30, %pmix_mca_base_var_group_get_internal.exit
  %19 = getelementptr i8, ptr %8, i64 328
  %.val20 = load i64, ptr %19, align 8, !tbaa !24
  %20 = trunc i64 %.val20 to i32
  %21 = getelementptr inbounds nuw i8, ptr %8, i64 312
  %22 = load ptr, ptr %21, align 8, !tbaa !52
  %23 = icmp sgt i32 %20, 0
  br i1 %23, label %.lr.ph31.preheader, label %._crit_edge32

.lr.ph31.preheader:                               ; preds = %._crit_edge
  %wide.trip.count37 = and i64 %.val20, 2147483647
  br label %.lr.ph31

.lr.ph:                                           ; preds = %.lr.ph.preheader, %30
  %indvars.iv = phi i64 [ 0, %.lr.ph.preheader ], [ %indvars.iv.next, %30 ]
  call void @llvm.lifetime.start.p0(i64 8, ptr nonnull %2) #17
  %24 = getelementptr inbounds nuw i32, ptr %17, i64 %indvars.iv
  %25 = load i32, ptr %24, align 4, !tbaa !3
  %26 = call i32 @pmix_mca_base_var_get(i32 noundef %25, ptr noundef nonnull %2) #17
  %.not19 = icmp eq i32 %26, 0
  br i1 %.not19, label %27, label %30

27:                                               ; preds = %.lr.ph
  %28 = load i32, ptr %24, align 4, !tbaa !3
  %29 = call i32 @pmix_mca_base_var_deregister(i32 noundef %28) #17
  br label %30

30:                                               ; preds = %.lr.ph, %27
  call void @llvm.lifetime.end.p0(i64 8, ptr nonnull %2) #17
  %indvars.iv.next = add nuw nsw i64 %indvars.iv, 1
  %exitcond.not = icmp eq i64 %indvars.iv.next, %wide.trip.count
  br i1 %exitcond.not, label %._crit_edge, label %.lr.ph, !llvm.loop !53

._crit_edge32:                                    ; preds = %.lr.ph31, %._crit_edge
  %31 = load i32, ptr @pmix_mca_base_var_groups_timestamp, align 4, !tbaa !3
  %32 = add nsw i32 %31, 1
  store i32 %32, ptr @pmix_mca_base_var_groups_timestamp, align 4, !tbaa !3
  br label %pmix_mca_base_var_group_get_internal.exit.thread

.lr.ph31:                                         ; preds = %.lr.ph31.preheader, %.lr.ph31
  %indvars.iv34 = phi i64 [ 0, %.lr.ph31.preheader ], [ %indvars.iv.next35, %.lr.ph31 ]
  %33 = getelementptr inbounds nuw i32, ptr %22, i64 %indvars.iv34
  %34 = load i32, ptr %33, align 4, !tbaa !3
  %35 = call i32 @pmix_mca_base_var_group_deregister(i32 noundef %34)
  %indvars.iv.next35 = add nuw nsw i64 %indvars.iv34, 1
  %exitcond38.not = icmp eq i64 %indvars.iv.next35, %wide.trip.count37
  br i1 %exitcond38.not, label %._crit_edge32, label %.lr.ph31, !llvm.loop !54

pmix_mca_base_var_group_get_internal.exit.thread: ; preds = %pmix_pointer_array_get_item.exit.i, %10, %1, %._crit_edge32
  %.017 = phi i32 [ 0, %._crit_edge32 ], [ -46, %1 ], [ -46, %10 ], [ -46, %pmix_pointer_array_get_item.exit.i ]
  ret i32 %.017
}